; Function Attrs: nounwind sspstrong uwtable
define internal range(i32 0, 6) i32 @parallels_co_block_status(ptr noundef readonly captures(none) %bs, i1 zeroext %want_zero, i64 noundef %offset, i64 noundef %bytes, ptr noundef writeonly captures(none) %pnum, ptr noundef writeonly captures(none) %map, ptr noundef writeonly captures(none) %file) #0 {
entry:
  %or = or i64 %bytes, %offset
  %rem = and i64 %or, 511
  %cmp = icmp eq i64 %rem, 0
  br i1 %cmp, label %if.end, label %if.else

if.else:                                          ; preds = %entry
  tail call void @__assert_fail(ptr noundef nonnull @.str.38, ptr noundef nonnull @.str.11, i32 noundef 426, ptr noundef nonnull @__PRETTY_FUNCTION__.parallels_co_block_status) #18
  unreachable

if.end:                                           ; preds = %entry
  %opaque = getelementptr inbounds nuw i8, ptr %bs, i64 24
  %0 = load ptr, ptr %opaque, align 8
  tail call void @qemu_co_mutex_lock(ptr noundef %0) #16
  %shr = ashr i64 %offset, 9
  %shr1 = lshr i64 %bytes, 9
  %conv = trunc i64 %shr1 to i32
  %tracks.i.i = getelementptr inbounds nuw i8, ptr %0, i64 140
  %bat_size.i.i = getelementptr inbounds nuw i8, ptr %0, i64 104
  %bat_bitmap.i.i = getelementptr inbounds nuw i8, ptr %0, i64 96
  %1 = getelementptr i8, ptr %0, i64 148
  %2 = load i32, ptr %tracks.i.i, align 4
  %conv.i.i = zext i32 %2 to i64
  %3 = load i32, ptr %bat_size.i.i, align 8
  br label %while.body.i

while.body.i:                                     ; preds = %if.end5.i, %if.end
  %count.0 = phi i32 [ 0, %if.end ], [ %add7.i, %if.end5.i ]
  %cmp123.i = phi i1 [ true, %if.end ], [ %cmp1.i, %if.end5.i ]
  %sector_num.addr.022.i = phi i64 [ %shr, %if.end ], [ %add.i, %if.end5.i ]
  %nb_sectors.addr.021.i = phi i32 [ %conv, %if.end ], [ %sub.i, %if.end5.i ]
  %prev_end_off.020.i = phi i64 [ -2, %if.end ], [ %spec.select.i, %if.end5.i ]
  %start_off.019.i = phi i64 [ -2, %if.end ], [ %start_off.1.i, %if.end5.i ]
  %div.i.i = sdiv i64 %sector_num.addr.022.i, %conv.i.i
  %conv1.i.i = trunc i64 %div.i.i to i32
  %rem.i.i = srem i64 %sector_num.addr.022.i, %conv.i.i
  %cmp.not.i.i = icmp ugt i32 %3, %conv1.i.i
  br i1 %cmp.not.i.i, label %lor.lhs.false.i.i, label %seek_to_sector.exit.i

lor.lhs.false.i.i:                                ; preds = %while.body.i
  %4 = load ptr, ptr %bat_bitmap.i.i, align 8
  %idxprom.i.i = and i64 %div.i.i, 4294967295
  %arrayidx.i.i = getelementptr i32, ptr %4, i64 %idxprom.i.i
  %5 = load i32, ptr %arrayidx.i.i, align 4
  %cmp6.i.i = icmp eq i32 %5, 0
  br i1 %cmp6.i.i, label %seek_to_sector.exit.i, label %if.end.i.i

if.end.i.i:                                       ; preds = %lor.lhs.false.i.i
  %s.val8.i.i = load i32, ptr %1, align 4
  %conv.i.i.i = zext i32 %5 to i64
  %conv1.i.i.i = zext i32 %s.val8.i.i to i64
  %mul.i.i.i = mul nuw i64 %conv1.i.i.i, %conv.i.i.i
  %conv8.i.i = and i64 %rem.i.i, 4294967295
  %add.i.i = add nuw i64 %mul.i.i.i, %conv8.i.i
  br label %seek_to_sector.exit.i

seek_to_sector.exit.i:                            ; preds = %if.end.i.i, %lor.lhs.false.i.i, %while.body.i
  %retval.0.i.i = phi i64 [ %add.i.i, %if.end.i.i ], [ -1, %lor.lhs.false.i.i ], [ -1, %while.body.i ]
  br i1 %cmp123.i, label %if.end5.i, label %if.else.i

if.else.i:                                        ; preds = %seek_to_sector.exit.i
  %cmp3.not.i = icmp eq i64 %retval.0.i.i, %prev_end_off.020.i
  br i1 %cmp3.not.i, label %if.end5.i, label %block_status.exit

if.end5.i:                                        ; preds = %if.else.i, %seek_to_sector.exit.i
  %start_off.1.i = phi i64 [ %start_off.019.i, %if.else.i ], [ %retval.0.i.i, %seek_to_sector.exit.i ]
  %prev_end_off.1.i = phi i64 [ %prev_end_off.020.i, %if.else.i ], [ %retval.0.i.i, %seek_to_sector.exit.i ]
  %6 = trunc i64 %rem.i.i to i32
  %conv3.i.i = sub i32 %2, %6
  %cond.i.i = tail call i32 @llvm.smin.i32(i32 %nb_sectors.addr.021.i, i32 %conv3.i.i)
  %sub.i = sub i32 %nb_sectors.addr.021.i, %cond.i.i
  %conv.i = sext i32 %cond.i.i to i64
  %add.i = add i64 %sector_num.addr.022.i, %conv.i
  %add7.i = add i32 %cond.i.i, %count.0
  %cmp8.i = icmp sgt i64 %retval.0.i.i, 0
  %add12.i = select i1 %cmp8.i, i64 %conv.i, i64 0
  %spec.select.i = add i64 %prev_end_off.1.i, %add12.i
  %cmp.i = icmp sgt i32 %sub.i, 0
  %cmp1.i = icmp eq i64 %start_off.1.i, -2
  %7 = select i1 %cmp.i, i1 true, i1 %cmp1.i
  br i1 %7, label %while.body.i, label %block_status.exit, !llvm.loop !7

block_status.exit:                                ; preds = %if.else.i, %if.end5.i
  %count.1 = phi i32 [ %add7.i, %if.end5.i ], [ %count.0, %if.else.i ]
  %start_off.0.lcssa.i = phi i64 [ %start_off.1.i, %if.end5.i ], [ %start_off.019.i, %if.else.i ]
  tail call void @qemu_co_mutex_unlock(ptr noundef %0) #16
  %conv3 = sext i32 %count.1 to i64
  %mul = shl nsw i64 %conv3, 9
  store i64 %mul, ptr %pnum, align 8
  %cmp4 = icmp slt i64 %start_off.0.lcssa.i, 0
  br i1 %cmp4, label %return, label %if.end7

if.end7:                                          ; preds = %block_status.exit
  %mul8 = shl i64 %start_off.0.lcssa.i, 9
  store i64 %mul8, ptr %map, align 8
  %file9 = getelementptr inbounds nuw i8, ptr %bs, i64 16840
  %8 = load ptr, ptr %file9, align 8
  %9 = load ptr, ptr %8, align 8
  store ptr %9, ptr %file, align 8
  br label %return

return:                                           ; preds = %block_status.exit, %if.end7
  %retval.0 = phi i32 [ 5, %if.end7 ], [ 0, %block_status.exit ]
  ret i32 %retval.0
}